; Function Attrs: mustprogress uwtable
define void @_ZN4lean26run_post_thread_finalizersEv() local_unnamed_addr #0 personality ptr @__gxx_personality_v0 {
  %1 = load ptr, ptr @_ZN4leanL23g_thread_finalizers_mgrE, align 8, !tbaa !17
  %2 = load i32, ptr %1, align 4, !tbaa !19
  %3 = tail call noundef ptr @pthread_getspecific(i32 noundef %2) #23
  %.not = icmp eq ptr %3, null
  br i1 %.not, label %_ZN4lean26run_thread_finalizers_coreERSt6vectorISt4pairIPFvPvES2_ESaIS5_EE.exit, label %4

4:                                                ; preds = %0
  %5 = getelementptr inbounds nuw i8, ptr %3, i64 24
  %6 = tail call align 1 ptr @llvm.threadlocal.address.p0(ptr align 1 @_ZN4leanL12g_finalizingE)
  store i8 1, ptr %6, align 1, !tbaa !22
  %7 = getelementptr inbounds nuw i8, ptr %3, i64 32
  %8 = load ptr, ptr %7, align 8, !tbaa !24
  %9 = load ptr, ptr %5, align 8, !tbaa !27
  %10 = ptrtoint ptr %8 to i64
  %11 = ptrtoint ptr %9 to i64
  %12 = sub i64 %10, %11
  %13 = and i64 %12, 68719476720
  %.not8.i = icmp eq i64 %13, 0
  br i1 %.not8.i, label %._crit_edge.i, label %.lr.ph.preheader.i

.lr.ph.preheader.i:                               ; preds = %4
  %14 = lshr exact i64 %12, 4
  %15 = and i64 %14, 4294967295
  br label %.lr.ph.i

.lr.ph.i:                                         ; preds = %.lr.ph.i, %.lr.ph.preheader.i
  %indvars.iv.i = phi i64 [ %15, %.lr.ph.preheader.i ], [ %16, %.lr.ph.i ]
  %16 = add nsw i64 %indvars.iv.i, -1
  %17 = load ptr, ptr %5, align 8, !tbaa !27
  %18 = getelementptr inbounds nuw %"struct.std::pair", ptr %17, i64 %16
  %19 = load ptr, ptr %18, align 8, !tbaa !28
  %20 = getelementptr inbounds nuw i8, ptr %18, i64 8
  %21 = load ptr, ptr %20, align 8, !tbaa !30
  tail call void %19(ptr noundef %21)
  %.not.wide.i = icmp eq i64 %16, 0
  br i1 %.not.wide.i, label %._crit_edge.loopexit.i, label %.lr.ph.i, !llvm.loop !31

._crit_edge.loopexit.i:                           ; preds = %.lr.ph.i
  %.pre.i = load ptr, ptr %5, align 8, !tbaa !27
  %.pre11.i = load ptr, ptr %7, align 8, !tbaa !24
  br label %._crit_edge.i

._crit_edge.i:                                    ; preds = %._crit_edge.loopexit.i, %4
  %22 = phi ptr [ %.pre11.i, %._crit_edge.loopexit.i ], [ %8, %4 ]
  %23 = phi ptr [ %.pre.i, %._crit_edge.loopexit.i ], [ %9, %4 ]
  %.not.i.i.i = icmp eq ptr %22, %23
  br i1 %.not.i.i.i, label %_ZN4lean26run_thread_finalizers_coreERSt6vectorISt4pairIPFvPvES2_ESaIS5_EE.exit, label %_ZSt8_DestroyIPSt4pairIPFvPvES1_ES4_EvT_S6_RSaIT0_E.exit.i.i.i

_ZSt8_DestroyIPSt4pairIPFvPvES1_ES4_EvT_S6_RSaIT0_E.exit.i.i.i: ; preds = %._crit_edge.i
  store ptr %23, ptr %7, align 8, !tbaa !24
  br label %_ZN4lean26run_thread_finalizers_coreERSt6vectorISt4pairIPFvPvES2_ESaIS5_EE.exit

_ZN4lean26run_thread_finalizers_coreERSt6vectorISt4pairIPFvPvES2_ESaIS5_EE.exit: ; preds = %_ZSt8_DestroyIPSt4pairIPFvPvES1_ES4_EvT_S6_RSaIT0_E.exit.i.i.i, %._crit_edge.i, %0
  ret void
}